target datalayout = "e-m:e-p270:32:32-p271:32:32-p272:64:64-i64:64-i128:128-f80:128-n8:16:32:64-S128"
target triple = "x86_64-pc-linux-gnu"

%struct.Cut_ManStruct_t_ = type { ptr, ptr, ptr, ptr, ptr, ptr, ptr, i32, i32, ptr, ptr, i32, i32, i32, i32, [2 x ptr], [2 x ptr], ptr, ptr, [4 x ptr], ptr, ptr, ptr, ptr, ptr, ptr, i32, i32, i32, i32, i32, i32, i32, i32, i32, i32, i32, i64, i64, i64, i64, i64, i64 }
%struct.Vec_Ptr_t_ = type { i32, i32, ptr }
%struct.Vec_Int_t_ = type { i32, i32, ptr }

; Function Attrs: inlinehint nounwind uwtable
define internal void @Vec_IntFree(ptr noundef %0) #4 {
  %2 = alloca ptr, align 8
  store ptr %0, ptr %2, align 8, !tbaa !51
  %3 = load ptr, ptr %2, align 8, !tbaa !51
  %4 = getelementptr inbounds nuw %struct.Vec_Int_t_, ptr %3, i32 0, i32 2
  %5 = load ptr, ptr %4, align 8, !tbaa !54
  %6 = icmp ne ptr %5, null
  br i1 %6, label %7, label %13

7:                                                ; preds = %1
  %8 = load ptr, ptr %2, align 8, !tbaa !51
  %9 = getelementptr inbounds nuw %struct.Vec_Int_t_, ptr %8, i32 0, i32 2
  %10 = load ptr, ptr %9, align 8, !tbaa !54
  call void @free(ptr noundef %10) #10
  %11 = load ptr, ptr %2, align 8, !tbaa !51
  %12 = getelementptr inbounds nuw %struct.Vec_Int_t_, ptr %11, i32 0, i32 2
  store ptr null, ptr %12, align 8, !tbaa !54
  br label %14

13:                                               ; preds = %1
  br label %14

14:                                               ; preds = %13, %7
  %15 = load ptr, ptr %2, align 8, !tbaa !51
  %16 = icmp ne ptr %15, null
  br i1 %16, label %17, label %19

17:                                               ; preds = %14
  %18 = load ptr, ptr %2, align 8, !tbaa !51
  call void @free(ptr noundef %18) #10
  store ptr null, ptr %2, align 8, !tbaa !51
  br label %20

19:                                               ; preds = %14
  br label %20

20:                                               ; preds = %19, %17
  ret void
}

; Function Attrs: inlinehint nounwind uwtable
define internal void @Vec_PtrFree(ptr noundef %0) #4 {
  %2 = alloca ptr, align 8
  store ptr %0, ptr %2, align 8, !tbaa !43
  %3 = load ptr, ptr %2, align 8, !tbaa !43
  %4 = getelementptr inbounds nuw %struct.Vec_Ptr_t_, ptr %3, i32 0, i32 2
  %5 = load ptr, ptr %4, align 8, !tbaa !47
  %6 = icmp ne ptr %5, null
  br i1 %6, label %7, label %13

7:                                                ; preds = %1
  %8 = load ptr, ptr %2, align 8, !tbaa !43
  %9 = getelementptr inbounds nuw %struct.Vec_Ptr_t_, ptr %8, i32 0, i32 2
  %10 = load ptr, ptr %9, align 8, !tbaa !47
  call void @free(ptr noundef %10) #10
  %11 = load ptr, ptr %2, align 8, !tbaa !43
  %12 = getelementptr inbounds nuw %struct.Vec_Ptr_t_, ptr %11, i32 0, i32 2
  store ptr null, ptr %12, align 8, !tbaa !47
  br label %14

13:                                               ; preds = %1
  br label %14

14:                                               ; preds = %13, %7
  %15 = load ptr, ptr %2, align 8, !tbaa !43
  %16 = icmp ne ptr %15, null
  br i1 %16, label %17, label %19

17:                                               ; preds = %14
  %18 = load ptr, ptr %2, align 8, !tbaa !43
  call void @free(ptr noundef %18) #10
  store ptr null, ptr %2, align 8, !tbaa !43
  br label %20

19:                                               ; preds = %14
  br label %20

20:                                               ; preds = %19, %17
  ret void
}

; Function Attrs: nounwind uwtable
define void @Cut_ManStop(ptr noundef %0) #0 {
  %2 = alloca ptr, align 8
  store ptr %0, ptr %2, align 8, !tbaa !8
  %3 = load ptr, ptr %2, align 8, !tbaa !8
  %4 = getelementptr inbounds nuw %struct.Cut_ManStruct_t_, ptr %3, i32 0, i32 3
  %5 = load ptr, ptr %4, align 8, !tbaa !20
  %6 = icmp ne ptr %5, null
  br i1 %6, label %7, label %11

7:                                                ; preds = %1
  %8 = load ptr, ptr %2, align 8, !tbaa !8
  %9 = getelementptr inbounds nuw %struct.Cut_ManStruct_t_, ptr %8, i32 0, i32 3
  %10 = load ptr, ptr %9, align 8, !tbaa !20
  call void @Vec_PtrFree(ptr noundef %10)
  br label %11

11:                                               ; preds = %7, %1
  %12 = load ptr, ptr %2, align 8, !tbaa !8
  %13 = getelementptr inbounds nuw %struct.Cut_ManStruct_t_, ptr %12, i32 0, i32 4
  %14 = load ptr, ptr %13, align 8, !tbaa !23
  %15 = icmp ne ptr %14, null
  br i1 %15, label %16, label %20

16:                                               ; preds = %11
  %17 = load ptr, ptr %2, align 8, !tbaa !8
  %18 = getelementptr inbounds nuw %struct.Cut_ManStruct_t_, ptr %17, i32 0, i32 4
  %19 = load ptr, ptr %18, align 8, !tbaa !23
  call void @Vec_PtrFree(ptr noundef %19)
  br label %20

20:                                               ; preds = %16, %11
  %21 = load ptr, ptr %2, align 8, !tbaa !8
  %22 = getelementptr inbounds nuw %struct.Cut_ManStruct_t_, ptr %21, i32 0, i32 5
  %23 = load ptr, ptr %22, align 8, !tbaa !25
  %24 = icmp ne ptr %23, null
  br i1 %24, label %25, label %29

25:                                               ; preds = %20
  %26 = load ptr, ptr %2, align 8, !tbaa !8
  %27 = getelementptr inbounds nuw %struct.Cut_ManStruct_t_, ptr %26, i32 0, i32 5
  %28 = load ptr, ptr %27, align 8, !tbaa !25
  call void @Vec_PtrFree(ptr noundef %28)
  br label %29

29:                                               ; preds = %25, %20
  %30 = load ptr, ptr %2, align 8, !tbaa !8
  %31 = getelementptr inbounds nuw %struct.Cut_ManStruct_t_, ptr %30, i32 0, i32 1
  %32 = load ptr, ptr %31, align 8, !tbaa !56
  %33 = icmp ne ptr %32, null
  br i1 %33, label %34, label %38

34:                                               ; preds = %29
  %35 = load ptr, ptr %2, align 8, !tbaa !8
  %36 = getelementptr inbounds nuw %struct.Cut_ManStruct_t_, ptr %35, i32 0, i32 1
  %37 = load ptr, ptr %36, align 8, !tbaa !56
  call void @Vec_IntFree(ptr noundef %37)
  br label %38

38:                                               ; preds = %34, %29
  %39 = load ptr, ptr %2, align 8, !tbaa !8
  %40 = getelementptr inbounds nuw %struct.Cut_ManStruct_t_, ptr %39, i32 0, i32 10
  %41 = load ptr, ptr %40, align 8, !tbaa !41
  %42 = icmp ne ptr %41, null
  br i1 %42, label %43, label %47

43:                                               ; preds = %38
  %44 = load ptr, ptr %2, align 8, !tbaa !8
  %45 = getelementptr inbounds nuw %struct.Cut_ManStruct_t_, ptr %44, i32 0, i32 10
  %46 = load ptr, ptr %45, align 8, !tbaa !41
  call void @Vec_PtrFree(ptr noundef %46)
  br label %47

47:                                               ; preds = %43, %38
  %48 = load ptr, ptr %2, align 8, !tbaa !8
  %49 = getelementptr inbounds nuw %struct.Cut_ManStruct_t_, ptr %48, i32 0, i32 23
  %50 = load ptr, ptr %49, align 8, !tbaa !39
  %51 = icmp ne ptr %50, null
  br i1 %51, label %52, label %56

52:                                               ; preds = %47
  %53 = load ptr, ptr %2, align 8, !tbaa !8
  %54 = getelementptr inbounds nuw %struct.Cut_ManStruct_t_, ptr %53, i32 0, i32 23
  %55 = load ptr, ptr %54, align 8, !tbaa !39
  call void @Vec_PtrFree(ptr noundef %55)
  br label %56

56:                                               ; preds = %52, %47
  %57 = load ptr, ptr %2, align 8, !tbaa !8
  %58 = getelementptr inbounds nuw %struct.Cut_ManStruct_t_, ptr %57, i32 0, i32 24
  %59 = load ptr, ptr %58, align 8, !tbaa !37
  %60 = icmp ne ptr %59, null
  br i1 %60, label %61, label %65

61:                                               ; preds = %56
  %62 = load ptr, ptr %2, align 8, !tbaa !8
  %63 = getelementptr inbounds nuw %struct.Cut_ManStruct_t_, ptr %62, i32 0, i32 24
  %64 = load ptr, ptr %63, align 8, !tbaa !37
  call void @Vec_IntFree(ptr noundef %64)
  br label %65

65:                                               ; preds = %61, %56
  %66 = load ptr, ptr %2, align 8, !tbaa !8
  %67 = getelementptr inbounds nuw %struct.Cut_ManStruct_t_, ptr %66, i32 0, i32 25
  %68 = load ptr, ptr %67, align 8, !tbaa !38
  %69 = icmp ne ptr %68, null
  br i1 %69, label %70, label %74

70:                                               ; preds = %65
  %71 = load ptr, ptr %2, align 8, !tbaa !8
  %72 = getelementptr inbounds nuw %struct.Cut_ManStruct_t_, ptr %71, i32 0, i32 25
  %73 = load ptr, ptr %72, align 8, !tbaa !38
  call void @Vec_IntFree(ptr noundef %73)
  br label %74

74:                                               ; preds = %70, %65
  %75 = load ptr, ptr %2, align 8, !tbaa !8
  %76 = getelementptr inbounds nuw %struct.Cut_ManStruct_t_, ptr %75, i32 0, i32 20
  %77 = load ptr, ptr %76, align 8, !tbaa !33
  %78 = icmp ne ptr %77, null
  br i1 %78, label %79, label %83

79:                                               ; preds = %74
  %80 = load ptr, ptr %2, align 8, !tbaa !8
  %81 = getelementptr inbounds nuw %struct.Cut_ManStruct_t_, ptr %80, i32 0, i32 20
  %82 = load ptr, ptr %81, align 8, !tbaa !33
  call void @Vec_IntFree(ptr noundef %82)
  br label %83

83:                                               ; preds = %79, %74
  %84 = load ptr, ptr %2, align 8, !tbaa !8
  %85 = getelementptr inbounds nuw %struct.Cut_ManStruct_t_, ptr %84, i32 0, i32 21
  %86 = load ptr, ptr %85, align 8, !tbaa !34
  %87 = icmp ne ptr %86, null
  br i1 %87, label %88, label %92

88:                                               ; preds = %83
  %89 = load ptr, ptr %2, align 8, !tbaa !8
  %90 = getelementptr inbounds nuw %struct.Cut_ManStruct_t_, ptr %89, i32 0, i32 21
  %91 = load ptr, ptr %90, align 8, !tbaa !34
  call void @Vec_IntFree(ptr noundef %91)
  br label %92

92:                                               ; preds = %88, %83
  %93 = load ptr, ptr %2, align 8, !tbaa !8
  %94 = getelementptr inbounds nuw %struct.Cut_ManStruct_t_, ptr %93, i32 0, i32 22
  %95 = load ptr, ptr %94, align 8, !tbaa !35
  %96 = icmp ne ptr %95, null
  br i1 %96, label %97, label %101

97:                                               ; preds = %92
  %98 = load ptr, ptr %2, align 8, !tbaa !8
  %99 = getelementptr inbounds nuw %struct.Cut_ManStruct_t_, ptr %98, i32 0, i32 22
  %100 = load ptr, ptr %99, align 8, !tbaa !35
  call void @Vec_IntFree(ptr noundef %100)
  br label %101

101:                                              ; preds = %97, %92
  %102 = load ptr, ptr %2, align 8, !tbaa !8
  %103 = getelementptr inbounds nuw %struct.Cut_ManStruct_t_, ptr %102, i32 0, i32 19
  %104 = getelementptr inbounds [4 x ptr], ptr %103, i64 0, i64 0
  %105 = load ptr, ptr %104, align 8, !tbaa !30
  %106 = icmp ne ptr %105, null
  br i1 %106, label %107, label %123

107:                                              ; preds = %101
  %108 = load ptr, ptr %2, align 8, !tbaa !8
  %109 = getelementptr inbounds nuw %struct.Cut_ManStruct_t_, ptr %108, i32 0, i32 19
  %110 = getelementptr inbounds [4 x ptr], ptr %109, i64 0, i64 0
  %111 = load ptr, ptr %110, align 8, !tbaa !30
  %112 = icmp ne ptr %111, null
  br i1 %112, label %113, label %121

113:                                              ; preds = %107
  %114 = load ptr, ptr %2, align 8, !tbaa !8
  %115 = getelementptr inbounds nuw %struct.Cut_ManStruct_t_, ptr %114, i32 0, i32 19
  %116 = getelementptr inbounds [4 x ptr], ptr %115, i64 0, i64 0
  %117 = load ptr, ptr %116, align 8, !tbaa !30
  call void @free(ptr noundef %117) #10
  %118 = load ptr, ptr %2, align 8, !tbaa !8
  %119 = getelementptr inbounds nuw %struct.Cut_ManStruct_t_, ptr %118, i32 0, i32 19
  %120 = getelementptr inbounds [4 x ptr], ptr %119, i64 0, i64 0
  store ptr null, ptr %120, align 8, !tbaa !30
  br label %122

121:                                              ; preds = %107
  br label %122

122:                                              ; preds = %121, %113
  br label %123

123:                                              ; preds = %122, %101
  %124 = load ptr, ptr %2, align 8, !tbaa !8
  %125 = getelementptr inbounds nuw %struct.Cut_ManStruct_t_, ptr %124, i32 0, i32 6
  %126 = load ptr, ptr %125, align 8, !tbaa !40
  call void @Extra_MmFixedStop(ptr noundef %126)
  %127 = load ptr, ptr %2, align 8, !tbaa !8
  %128 = icmp ne ptr %127, null
  br i1 %128, label %129, label %131

129:                                              ; preds = %123
  %130 = load ptr, ptr %2, align 8, !tbaa !8
  call void @free(ptr noundef %130) #10
  store ptr null, ptr %2, align 8, !tbaa !8
  br label %132

131:                                              ; preds = %123
  br label %132

132:                                              ; preds = %131, %129
  ret void
}