; Function Attrs: nounwind uwtable
define void @Cut_ManStop(ptr noundef captures(none) %0) local_unnamed_addr #0 {
  %2 = getelementptr inbounds nuw i8, ptr %0, i64 24
  %3 = load ptr, ptr %2, align 8, !tbaa !20
  %.not = icmp eq ptr %3, null
  br i1 %.not, label %8, label %4

4:                                                ; preds = %1
  %5 = getelementptr inbounds nuw i8, ptr %3, i64 8
  %6 = load ptr, ptr %5, align 8, !tbaa !19
  %.not.i = icmp eq ptr %6, null
  br i1 %.not.i, label %Vec_PtrFree.exit, label %7

7:                                                ; preds = %4
  tail call void @free(ptr noundef nonnull %6) #20
  br label %Vec_PtrFree.exit

Vec_PtrFree.exit:                                 ; preds = %4, %7
  tail call void @free(ptr noundef nonnull %3) #20
  br label %8

8:                                                ; preds = %Vec_PtrFree.exit, %1
  %9 = getelementptr inbounds nuw i8, ptr %0, i64 32
  %10 = load ptr, ptr %9, align 8, !tbaa !27
  %.not41 = icmp eq ptr %10, null
  br i1 %.not41, label %15, label %11

11:                                               ; preds = %8
  %12 = getelementptr inbounds nuw i8, ptr %10, i64 8
  %13 = load ptr, ptr %12, align 8, !tbaa !19
  %.not.i53 = icmp eq ptr %13, null
  br i1 %.not.i53, label %Vec_PtrFree.exit54, label %14

14:                                               ; preds = %11
  tail call void @free(ptr noundef nonnull %13) #20
  br label %Vec_PtrFree.exit54

Vec_PtrFree.exit54:                               ; preds = %11, %14
  tail call void @free(ptr noundef nonnull %10) #20
  br label %15

15:                                               ; preds = %Vec_PtrFree.exit54, %8
  %16 = getelementptr inbounds nuw i8, ptr %0, i64 40
  %17 = load ptr, ptr %16, align 8, !tbaa !29
  %.not42 = icmp eq ptr %17, null
  br i1 %.not42, label %22, label %18

18:                                               ; preds = %15
  %19 = getelementptr inbounds nuw i8, ptr %17, i64 8
  %20 = load ptr, ptr %19, align 8, !tbaa !19
  %.not.i55 = icmp eq ptr %20, null
  br i1 %.not.i55, label %Vec_PtrFree.exit56, label %21

21:                                               ; preds = %18
  tail call void @free(ptr noundef nonnull %20) #20
  br label %Vec_PtrFree.exit56

Vec_PtrFree.exit56:                               ; preds = %18, %21
  tail call void @free(ptr noundef nonnull %17) #20
  br label %22

22:                                               ; preds = %Vec_PtrFree.exit56, %15
  %23 = getelementptr inbounds nuw i8, ptr %0, i64 8
  %24 = load ptr, ptr %23, align 8, !tbaa !50
  %.not43 = icmp eq ptr %24, null
  br i1 %.not43, label %29, label %25

25:                                               ; preds = %22
  %26 = getelementptr inbounds nuw i8, ptr %24, i64 8
  %27 = load ptr, ptr %26, align 8, !tbaa !39
  %.not.i57 = icmp eq ptr %27, null
  br i1 %.not.i57, label %Vec_IntFree.exit, label %28

28:                                               ; preds = %25
  tail call void @free(ptr noundef nonnull %27) #20
  br label %Vec_IntFree.exit

Vec_IntFree.exit:                                 ; preds = %25, %28
  tail call void @free(ptr noundef nonnull %24) #20
  br label %29

29:                                               ; preds = %Vec_IntFree.exit, %22
  %30 = getelementptr inbounds nuw i8, ptr %0, i64 72
  %31 = load ptr, ptr %30, align 8, !tbaa !49
  %.not44 = icmp eq ptr %31, null
  br i1 %.not44, label %36, label %32

32:                                               ; preds = %29
  %33 = getelementptr inbounds nuw i8, ptr %31, i64 8
  %34 = load ptr, ptr %33, align 8, !tbaa !19
  %.not.i58 = icmp eq ptr %34, null
  br i1 %.not.i58, label %Vec_PtrFree.exit59, label %35

35:                                               ; preds = %32
  tail call void @free(ptr noundef nonnull %34) #20
  br label %Vec_PtrFree.exit59

Vec_PtrFree.exit59:                               ; preds = %32, %35
  tail call void @free(ptr noundef nonnull %31) #20
  br label %36

36:                                               ; preds = %Vec_PtrFree.exit59, %29
  %37 = getelementptr inbounds nuw i8, ptr %0, i64 200
  %38 = load ptr, ptr %37, align 8, !tbaa !47
  %.not45 = icmp eq ptr %38, null
  br i1 %.not45, label %43, label %39

39:                                               ; preds = %36
  %40 = getelementptr inbounds nuw i8, ptr %38, i64 8
  %41 = load ptr, ptr %40, align 8, !tbaa !19
  %.not.i60 = icmp eq ptr %41, null
  br i1 %.not.i60, label %Vec_PtrFree.exit61, label %42

42:                                               ; preds = %39
  tail call void @free(ptr noundef nonnull %41) #20
  br label %Vec_PtrFree.exit61

Vec_PtrFree.exit61:                               ; preds = %39, %42
  tail call void @free(ptr noundef nonnull %38) #20
  br label %43

43:                                               ; preds = %Vec_PtrFree.exit61, %36
  %44 = getelementptr inbounds nuw i8, ptr %0, i64 208
  %45 = load ptr, ptr %44, align 8, !tbaa !45
  %.not46 = icmp eq ptr %45, null
  br i1 %.not46, label %50, label %46

46:                                               ; preds = %43
  %47 = getelementptr inbounds nuw i8, ptr %45, i64 8
  %48 = load ptr, ptr %47, align 8, !tbaa !39
  %.not.i62 = icmp eq ptr %48, null
  br i1 %.not.i62, label %Vec_IntFree.exit63, label %49

49:                                               ; preds = %46
  tail call void @free(ptr noundef nonnull %48) #20
  br label %Vec_IntFree.exit63

Vec_IntFree.exit63:                               ; preds = %46, %49
  tail call void @free(ptr noundef nonnull %45) #20
  br label %50

50:                                               ; preds = %Vec_IntFree.exit63, %43
  %51 = getelementptr inbounds nuw i8, ptr %0, i64 216
  %52 = load ptr, ptr %51, align 8, !tbaa !46
  %.not47 = icmp eq ptr %52, null
  br i1 %.not47, label %57, label %53

53:                                               ; preds = %50
  %54 = getelementptr inbounds nuw i8, ptr %52, i64 8
  %55 = load ptr, ptr %54, align 8, !tbaa !39
  %.not.i64 = icmp eq ptr %55, null
  br i1 %.not.i64, label %Vec_IntFree.exit65, label %56

56:                                               ; preds = %53
  tail call void @free(ptr noundef nonnull %55) #20
  br label %Vec_IntFree.exit65

Vec_IntFree.exit65:                               ; preds = %53, %56
  tail call void @free(ptr noundef nonnull %52) #20
  br label %57

57:                                               ; preds = %Vec_IntFree.exit65, %50
  %58 = getelementptr inbounds nuw i8, ptr %0, i64 176
  %59 = load ptr, ptr %58, align 8, !tbaa !41
  %.not48 = icmp eq ptr %59, null
  br i1 %.not48, label %64, label %60

60:                                               ; preds = %57
  %61 = getelementptr inbounds nuw i8, ptr %59, i64 8
  %62 = load ptr, ptr %61, align 8, !tbaa !39
  %.not.i66 = icmp eq ptr %62, null
  br i1 %.not.i66, label %Vec_IntFree.exit67, label %63

63:                                               ; preds = %60
  tail call void @free(ptr noundef nonnull %62) #20
  br label %Vec_IntFree.exit67

Vec_IntFree.exit67:                               ; preds = %60, %63
  tail call void @free(ptr noundef nonnull %59) #20
  br label %64

64:                                               ; preds = %Vec_IntFree.exit67, %57
  %65 = getelementptr inbounds nuw i8, ptr %0, i64 184
  %66 = load ptr, ptr %65, align 8, !tbaa !42
  %.not49 = icmp eq ptr %66, null
  br i1 %.not49, label %71, label %67

67:                                               ; preds = %64
  %68 = getelementptr inbounds nuw i8, ptr %66, i64 8
  %69 = load ptr, ptr %68, align 8, !tbaa !39
  %.not.i68 = icmp eq ptr %69, null
  br i1 %.not.i68, label %Vec_IntFree.exit69, label %70

70:                                               ; preds = %67
  tail call void @free(ptr noundef nonnull %69) #20
  br label %Vec_IntFree.exit69

Vec_IntFree.exit69:                               ; preds = %67, %70
  tail call void @free(ptr noundef nonnull %66) #20
  br label %71

71:                                               ; preds = %Vec_IntFree.exit69, %64
  %72 = getelementptr inbounds nuw i8, ptr %0, i64 192
  %73 = load ptr, ptr %72, align 8, !tbaa !43
  %.not50 = icmp eq ptr %73, null
  br i1 %.not50, label %78, label %74

74:                                               ; preds = %71
  %75 = getelementptr inbounds nuw i8, ptr %73, i64 8
  %76 = load ptr, ptr %75, align 8, !tbaa !39
  %.not.i70 = icmp eq ptr %76, null
  br i1 %.not.i70, label %Vec_IntFree.exit71, label %77

77:                                               ; preds = %74
  tail call void @free(ptr noundef nonnull %76) #20
  br label %Vec_IntFree.exit71

Vec_IntFree.exit71:                               ; preds = %74, %77
  tail call void @free(ptr noundef nonnull %73) #20
  br label %78

78:                                               ; preds = %Vec_IntFree.exit71, %71
  %79 = getelementptr inbounds nuw i8, ptr %0, i64 144
  %80 = load ptr, ptr %79, align 8, !tbaa !34
  %.not51 = icmp eq ptr %80, null
  br i1 %.not51, label %82, label %81

81:                                               ; preds = %78
  tail call void @free(ptr noundef nonnull %80) #20
  store ptr null, ptr %79, align 8, !tbaa !34
  br label %82

82:                                               ; preds = %81, %78
  %83 = getelementptr inbounds nuw i8, ptr %0, i64 48
  %84 = load ptr, ptr %83, align 8, !tbaa !48
  tail call void @Extra_MmFixedStop(ptr noundef %84) #20
  tail call void @free(ptr noundef nonnull %0) #20
  ret void
}